target datalayout = "e-m:e-p270:32:32-p271:32:32-p272:64:64-i64:64-i128:128-f80:128-n8:16:32:64-S128"
target triple = "x86_64-pc-linux-gnu"

%struct.GetByteContext = type { ptr, ptr, ptr }
%struct.AVProbeData = type { ptr, ptr, i32, ptr }

@.str.2 = private unnamed_addr constant [30 x i8] c"Assertion %s failed at %s:%d\0A\00", align 1
@.str.3 = private unnamed_addr constant [14 x i8] c"buf_size >= 0\00", align 1
@.str.4 = private unnamed_addr constant [26 x i8] c"./libavcodec/bytestream.h\00", align 1

; Function Attrs: alwaysinline nounwind willreturn memory(none) uwtable
define internal zeroext i16 @av_bswap16(i16 noundef zeroext %0) #5 {
  %2 = alloca i16, align 2
  store i16 %0, ptr %2, align 2, !tbaa !86
  %3 = load i16, ptr %2, align 2, !tbaa !86
  %4 = zext i16 %3 to i32
  %5 = ashr i32 %4, 8
  %6 = load i16, ptr %2, align 2, !tbaa !86
  %7 = zext i16 %6 to i32
  %8 = shl i32 %7, 8
  %9 = or i32 %5, %8
  %10 = trunc i32 %9 to i16
  store i16 %10, ptr %2, align 2, !tbaa !86
  %11 = load i16, ptr %2, align 2, !tbaa !86
  ret i16 %11
}

; Function Attrs: alwaysinline nounwind uwtable
define internal i32 @bytestream_get_byte(ptr noundef %0) #2 {
  %2 = alloca ptr, align 8
  store ptr %0, ptr %2, align 8, !tbaa !84
  %3 = load ptr, ptr %2, align 8, !tbaa !84
  %4 = load ptr, ptr %3, align 8, !tbaa !79
  %5 = getelementptr inbounds i8, ptr %4, i64 1
  store ptr %5, ptr %3, align 8, !tbaa !79
  %6 = load ptr, ptr %2, align 8, !tbaa !84
  %7 = load ptr, ptr %6, align 8, !tbaa !79
  %8 = getelementptr inbounds i8, ptr %7, i64 -1
  %9 = getelementptr inbounds i8, ptr %8, i64 0
  %10 = load i8, ptr %9, align 1, !tbaa !72
  %11 = zext i8 %10 to i32
  ret i32 %11
}

; Function Attrs: alwaysinline nounwind uwtable
define internal i32 @bytestream_get_be16(ptr noundef %0) #2 {
  %2 = alloca ptr, align 8
  store ptr %0, ptr %2, align 8, !tbaa !84
  %3 = load ptr, ptr %2, align 8, !tbaa !84
  %4 = load ptr, ptr %3, align 8, !tbaa !79
  %5 = getelementptr inbounds i8, ptr %4, i64 2
  store ptr %5, ptr %3, align 8, !tbaa !79
  %6 = load ptr, ptr %2, align 8, !tbaa !84
  %7 = load ptr, ptr %6, align 8, !tbaa !79
  %8 = getelementptr inbounds i8, ptr %7, i64 -2
  %9 = load i16, ptr %8, align 1, !tbaa !72
  %10 = call zeroext i16 @av_bswap16(i16 noundef zeroext %9) #10
  %11 = zext i16 %10 to i32
  ret i32 %11
}

; Function Attrs: alwaysinline nounwind uwtable
define internal i32 @bytestream2_get_byteu(ptr noundef %0) #2 {
  %2 = alloca ptr, align 8
  store ptr %0, ptr %2, align 8, !tbaa !77
  %3 = load ptr, ptr %2, align 8, !tbaa !77
  %4 = getelementptr inbounds nuw %struct.GetByteContext, ptr %3, i32 0, i32 0
  %5 = call i32 @bytestream_get_byte(ptr noundef %4)
  ret i32 %5
}

; Function Attrs: alwaysinline nounwind uwtable
define internal i32 @bytestream2_get_be16u(ptr noundef %0) #2 {
  %2 = alloca ptr, align 8
  store ptr %0, ptr %2, align 8, !tbaa !77
  %3 = load ptr, ptr %2, align 8, !tbaa !77
  %4 = getelementptr inbounds nuw %struct.GetByteContext, ptr %3, i32 0, i32 0
  %5 = call i32 @bytestream_get_be16(ptr noundef %4)
  ret i32 %5
}

; Function Attrs: alwaysinline nounwind uwtable
define internal i32 @bytestream2_get_byte(ptr noundef %0) #2 {
  %2 = alloca i32, align 4
  %3 = alloca ptr, align 8
  store ptr %0, ptr %3, align 8, !tbaa !77
  %4 = load ptr, ptr %3, align 8, !tbaa !77
  %5 = getelementptr inbounds nuw %struct.GetByteContext, ptr %4, i32 0, i32 1
  %6 = load ptr, ptr %5, align 8, !tbaa !83
  %7 = load ptr, ptr %3, align 8, !tbaa !77
  %8 = getelementptr inbounds nuw %struct.GetByteContext, ptr %7, i32 0, i32 0
  %9 = load ptr, ptr %8, align 8, !tbaa !80
  %10 = ptrtoint ptr %6 to i64
  %11 = ptrtoint ptr %9 to i64
  %12 = sub i64 %10, %11
  %13 = icmp slt i64 %12, 1
  br i1 %13, label %14, label %20

14:                                               ; preds = %1
  %15 = load ptr, ptr %3, align 8, !tbaa !77
  %16 = getelementptr inbounds nuw %struct.GetByteContext, ptr %15, i32 0, i32 1
  %17 = load ptr, ptr %16, align 8, !tbaa !83
  %18 = load ptr, ptr %3, align 8, !tbaa !77
  %19 = getelementptr inbounds nuw %struct.GetByteContext, ptr %18, i32 0, i32 0
  store ptr %17, ptr %19, align 8, !tbaa !80
  store i32 0, ptr %2, align 4
  br label %23

20:                                               ; preds = %1
  %21 = load ptr, ptr %3, align 8, !tbaa !77
  %22 = call i32 @bytestream2_get_byteu(ptr noundef %21)
  store i32 %22, ptr %2, align 4
  br label %23

23:                                               ; preds = %20, %14
  %24 = load i32, ptr %2, align 4
  ret i32 %24
}

; Function Attrs: alwaysinline nounwind uwtable
define internal i32 @bytestream2_get_bytes_left(ptr noundef %0) #2 {
  %2 = alloca ptr, align 8
  store ptr %0, ptr %2, align 8, !tbaa !77
  %3 = load ptr, ptr %2, align 8, !tbaa !77
  %4 = getelementptr inbounds nuw %struct.GetByteContext, ptr %3, i32 0, i32 1
  %5 = load ptr, ptr %4, align 8, !tbaa !83
  %6 = load ptr, ptr %2, align 8, !tbaa !77
  %7 = getelementptr inbounds nuw %struct.GetByteContext, ptr %6, i32 0, i32 0
  %8 = load ptr, ptr %7, align 8, !tbaa !80
  %9 = ptrtoint ptr %5 to i64
  %10 = ptrtoint ptr %8 to i64
  %11 = sub i64 %9, %10
  %12 = trunc i64 %11 to i32
  ret i32 %12
}

; Function Attrs: alwaysinline nounwind uwtable
define internal void @bytestream2_skip(ptr noundef %0, i32 noundef %1) #2 {
  %3 = alloca ptr, align 8
  %4 = alloca i32, align 4
  store ptr %0, ptr %3, align 8, !tbaa !77
  store i32 %1, ptr %4, align 4, !tbaa !9
  %5 = load ptr, ptr %3, align 8, !tbaa !77
  %6 = getelementptr inbounds nuw %struct.GetByteContext, ptr %5, i32 0, i32 1
  %7 = load ptr, ptr %6, align 8, !tbaa !83
  %8 = load ptr, ptr %3, align 8, !tbaa !77
  %9 = getelementptr inbounds nuw %struct.GetByteContext, ptr %8, i32 0, i32 0
  %10 = load ptr, ptr %9, align 8, !tbaa !80
  %11 = ptrtoint ptr %7 to i64
  %12 = ptrtoint ptr %10 to i64
  %13 = sub i64 %11, %12
  %14 = load i32, ptr %4, align 4, !tbaa !9
  %15 = zext i32 %14 to i64
  %16 = icmp sgt i64 %13, %15
  br i1 %16, label %17, label %20

17:                                               ; preds = %2
  %18 = load i32, ptr %4, align 4, !tbaa !9
  %19 = zext i32 %18 to i64
  br label %30

20:                                               ; preds = %2
  %21 = load ptr, ptr %3, align 8, !tbaa !77
  %22 = getelementptr inbounds nuw %struct.GetByteContext, ptr %21, i32 0, i32 1
  %23 = load ptr, ptr %22, align 8, !tbaa !83
  %24 = load ptr, ptr %3, align 8, !tbaa !77
  %25 = getelementptr inbounds nuw %struct.GetByteContext, ptr %24, i32 0, i32 0
  %26 = load ptr, ptr %25, align 8, !tbaa !80
  %27 = ptrtoint ptr %23 to i64
  %28 = ptrtoint ptr %26 to i64
  %29 = sub i64 %27, %28
  br label %30

30:                                               ; preds = %20, %17
  %31 = phi i64 [ %19, %17 ], [ %29, %20 ]
  %32 = load ptr, ptr %3, align 8, !tbaa !77
  %33 = getelementptr inbounds nuw %struct.GetByteContext, ptr %32, i32 0, i32 0
  %34 = load ptr, ptr %33, align 8, !tbaa !80
  %35 = getelementptr inbounds i8, ptr %34, i64 %31
  store ptr %35, ptr %33, align 8, !tbaa !80
  ret void
}

; Function Attrs: alwaysinline nounwind uwtable
define internal i32 @bytestream2_get_be16(ptr noundef %0) #2 {
  %2 = alloca i32, align 4
  %3 = alloca ptr, align 8
  store ptr %0, ptr %3, align 8, !tbaa !77
  %4 = load ptr, ptr %3, align 8, !tbaa !77
  %5 = getelementptr inbounds nuw %struct.GetByteContext, ptr %4, i32 0, i32 1
  %6 = load ptr, ptr %5, align 8, !tbaa !83
  %7 = load ptr, ptr %3, align 8, !tbaa !77
  %8 = getelementptr inbounds nuw %struct.GetByteContext, ptr %7, i32 0, i32 0
  %9 = load ptr, ptr %8, align 8, !tbaa !80
  %10 = ptrtoint ptr %6 to i64
  %11 = ptrtoint ptr %9 to i64
  %12 = sub i64 %10, %11
  %13 = icmp slt i64 %12, 2
  br i1 %13, label %14, label %20

14:                                               ; preds = %1
  %15 = load ptr, ptr %3, align 8, !tbaa !77
  %16 = getelementptr inbounds nuw %struct.GetByteContext, ptr %15, i32 0, i32 1
  %17 = load ptr, ptr %16, align 8, !tbaa !83
  %18 = load ptr, ptr %3, align 8, !tbaa !77
  %19 = getelementptr inbounds nuw %struct.GetByteContext, ptr %18, i32 0, i32 0
  store ptr %17, ptr %19, align 8, !tbaa !80
  store i32 0, ptr %2, align 4
  br label %23

20:                                               ; preds = %1
  %21 = load ptr, ptr %3, align 8, !tbaa !77
  %22 = call i32 @bytestream2_get_be16u(ptr noundef %21)
  store i32 %22, ptr %2, align 4
  br label %23

23:                                               ; preds = %20, %14
  %24 = load i32, ptr %2, align 4
  ret i32 %24
}

; Function Attrs: alwaysinline nounwind uwtable
define internal void @bytestream2_init(ptr noundef %0, ptr noundef %1, i32 noundef %2) #2 {
  %4 = alloca ptr, align 8
  %5 = alloca ptr, align 8
  %6 = alloca i32, align 4
  store ptr %0, ptr %4, align 8, !tbaa !77
  store ptr %1, ptr %5, align 8, !tbaa !79
  store i32 %2, ptr %6, align 4, !tbaa !9
  br label %7

7:                                                ; preds = %3
  %8 = load i32, ptr %6, align 4, !tbaa !9
  %9 = icmp sge i32 %8, 0
  br i1 %9, label %11, label %10

10:                                               ; preds = %7
  call void (ptr, i32, ptr, ...) @av_log(ptr noundef null, i32 noundef 0, ptr noundef @.str.2, ptr noundef @.str.3, ptr noundef @.str.4, i32 noundef 141)
  call void @abort() #9
  unreachable

11:                                               ; preds = %7
  br label %12

12:                                               ; preds = %11
  %13 = load ptr, ptr %5, align 8, !tbaa !79
  %14 = load ptr, ptr %4, align 8, !tbaa !77
  %15 = getelementptr inbounds nuw %struct.GetByteContext, ptr %14, i32 0, i32 0
  store ptr %13, ptr %15, align 8, !tbaa !80
  %16 = load ptr, ptr %5, align 8, !tbaa !79
  %17 = load ptr, ptr %4, align 8, !tbaa !77
  %18 = getelementptr inbounds nuw %struct.GetByteContext, ptr %17, i32 0, i32 2
  store ptr %16, ptr %18, align 8, !tbaa !82
  %19 = load ptr, ptr %5, align 8, !tbaa !79
  %20 = load i32, ptr %6, align 4, !tbaa !9
  %21 = sext i32 %20 to i64
  %22 = getelementptr inbounds i8, ptr %19, i64 %21
  %23 = load ptr, ptr %4, align 8, !tbaa !77
  %24 = getelementptr inbounds nuw %struct.GetByteContext, ptr %23, i32 0, i32 1
  store ptr %22, ptr %24, align 8, !tbaa !83
  ret void
}

; Function Attrs: nounwind uwtable
define internal i32 @moflex_probe(ptr noundef %0) #0 {
  %2 = alloca i32, align 4
  %3 = alloca ptr, align 8
  %4 = alloca %struct.GetByteContext, align 8
  %5 = alloca i32, align 4
  %6 = alloca i32, align 4
  %7 = alloca i32, align 4
  %8 = alloca i32, align 4
  store ptr %0, ptr %3, align 8, !tbaa !4
  call void @llvm.lifetime.start.p0(i64 24, ptr %4) #8
  call void @llvm.lifetime.start.p0(i64 4, ptr %5) #8
  store i32 0, ptr %5, align 4, !tbaa !9
  %9 = load ptr, ptr %3, align 8, !tbaa !4
  %10 = getelementptr inbounds nuw %struct.AVProbeData, ptr %9, i32 0, i32 1
  %11 = load ptr, ptr %10, align 8, !tbaa !11
  %12 = load ptr, ptr %3, align 8, !tbaa !4
  %13 = getelementptr inbounds nuw %struct.AVProbeData, ptr %12, i32 0, i32 2
  %14 = load i32, ptr %13, align 8, !tbaa !14
  call void @bytestream2_init(ptr noundef %4, ptr noundef %11, i32 noundef %14)
  %15 = call i32 @bytestream2_get_be16(ptr noundef %4)
  %16 = icmp ne i32 %15, 19506
  br i1 %16, label %17, label %18

17:                                               ; preds = %1
  store i32 0, ptr %2, align 4
  store i32 1, ptr %6, align 4
  br label %82

18:                                               ; preds = %1
  %19 = load i32, ptr %5, align 4, !tbaa !9
  %20 = add nsw i32 %19, 10
  store i32 %20, ptr %5, align 4, !tbaa !9
  call void @bytestream2_skip(ptr noundef %4, i32 noundef 10)
  %21 = call i32 @bytestream2_get_be16(ptr noundef %4)
  %22 = icmp eq i32 %21, 0
  br i1 %22, label %23, label %24

23:                                               ; preds = %18
  store i32 0, ptr %2, align 4
  store i32 1, ptr %6, align 4
  br label %82

24:                                               ; preds = %18
  %25 = load i32, ptr %5, align 4, !tbaa !9
  %26 = add nsw i32 %25, 5
  store i32 %26, ptr %5, align 4, !tbaa !9
  br label %27

27:                                               ; preds = %73, %24
  %28 = call i32 @bytestream2_get_bytes_left(ptr noundef %4)
  %29 = icmp sgt i32 %28, 0
  br i1 %29, label %30, label %74

30:                                               ; preds = %27
  call void @llvm.lifetime.start.p0(i64 4, ptr %7) #8
  %31 = call i32 @bytestream2_get_byte(ptr noundef %4)
  store i32 %31, ptr %7, align 4, !tbaa !9
  call void @llvm.lifetime.start.p0(i64 4, ptr %8) #8
  %32 = call i32 @bytestream2_get_byte(ptr noundef %4)
  store i32 %32, ptr %8, align 4, !tbaa !9
  %33 = load i32, ptr %7, align 4, !tbaa !9
  %34 = icmp eq i32 %33, 0
  br i1 %34, label %35, label %42

35:                                               ; preds = %30
  %36 = load i32, ptr %8, align 4, !tbaa !9
  %37 = icmp eq i32 %36, 0
  %38 = zext i1 %37 to i32
  %39 = mul nsw i32 5, %38
  %40 = load i32, ptr %5, align 4, !tbaa !9
  %41 = add nsw i32 %40, %39
  store i32 %41, ptr %5, align 4, !tbaa !9
  store i32 3, ptr %6, align 4
  br label %71

42:                                               ; preds = %30
  %43 = load i32, ptr %7, align 4, !tbaa !9
  %44 = icmp eq i32 %43, 1
  br i1 %44, label %45, label %48

45:                                               ; preds = %42
  %46 = load i32, ptr %8, align 4, !tbaa !9
  %47 = icmp eq i32 %46, 12
  br i1 %47, label %66, label %48

48:                                               ; preds = %45, %42
  %49 = load i32, ptr %7, align 4, !tbaa !9
  %50 = icmp eq i32 %49, 2
  br i1 %50, label %51, label %54

51:                                               ; preds = %48
  %52 = load i32, ptr %8, align 4, !tbaa !9
  %53 = icmp eq i32 %52, 6
  br i1 %53, label %66, label %54

54:                                               ; preds = %51, %48
  %55 = load i32, ptr %7, align 4, !tbaa !9
  %56 = icmp eq i32 %55, 3
  br i1 %56, label %57, label %60

57:                                               ; preds = %54
  %58 = load i32, ptr %8, align 4, !tbaa !9
  %59 = icmp eq i32 %58, 13
  br i1 %59, label %66, label %60

60:                                               ; preds = %57, %54
  %61 = load i32, ptr %7, align 4, !tbaa !9
  %62 = icmp eq i32 %61, 4
  br i1 %62, label %63, label %69

63:                                               ; preds = %60
  %64 = load i32, ptr %8, align 4, !tbaa !9
  %65 = icmp eq i32 %64, 2
  br i1 %65, label %66, label %69

66:                                               ; preds = %63, %57, %51, %45
  %67 = load i32, ptr %5, align 4, !tbaa !9
  %68 = add nsw i32 %67, 20
  store i32 %68, ptr %5, align 4, !tbaa !9
  br label %69

69:                                               ; preds = %66, %63, %60
  %70 = load i32, ptr %8, align 4, !tbaa !9
  call void @bytestream2_skip(ptr noundef %4, i32 noundef %70)
  store i32 0, ptr %6, align 4
  br label %71

71:                                               ; preds = %69, %35
  call void @llvm.lifetime.end.p0(i64 4, ptr %8) #8
  call void @llvm.lifetime.end.p0(i64 4, ptr %7) #8
  %72 = load i32, ptr %6, align 4
  switch i32 %72, label %84 [
    i32 0, label %73
    i32 3, label %74
  ]

73:                                               ; preds = %71
  br label %27, !llvm.loop !15

74:                                               ; preds = %71, %27
  %75 = load i32, ptr %5, align 4, !tbaa !9
  %76 = icmp sgt i32 100, %75
  br i1 %76, label %77, label %79

77:                                               ; preds = %74
  %78 = load i32, ptr %5, align 4, !tbaa !9
  br label %80

79:                                               ; preds = %74
  br label %80

80:                                               ; preds = %79, %77
  %81 = phi i32 [ %78, %77 ], [ 100, %79 ]
  store i32 %81, ptr %2, align 4
  store i32 1, ptr %6, align 4
  br label %82

82:                                               ; preds = %80, %23, %17
  call void @llvm.lifetime.end.p0(i64 4, ptr %5) #8
  call void @llvm.lifetime.end.p0(i64 24, ptr %4) #8
  %83 = load i32, ptr %2, align 4
  ret i32 %83

84:                                               ; preds = %71
  unreachable
}