; Function Attrs: nounwind uwtable
define internal range(i32 -2147483648, 101) i32 @moflex_probe(ptr noundef readonly captures(none) %0) #0 {
  %2 = getelementptr inbounds nuw i8, ptr %0, i64 8
  %3 = load ptr, ptr %2, align 8, !tbaa !4
  %4 = getelementptr inbounds nuw i8, ptr %0, i64 16
  %5 = load i32, ptr %4, align 8, !tbaa !11
  %6 = icmp sgt i32 %5, -1
  br i1 %6, label %bytestream2_init.exit, label %7

7:                                                ; preds = %1
  tail call void (ptr, i32, ptr, ...) @av_log(ptr noundef null, i32 noundef 0, ptr noundef nonnull @.str.2, ptr noundef nonnull @.str.3, ptr noundef nonnull @.str.4, i32 noundef 141) #5
  tail call void @abort() #6
  unreachable

bytestream2_init.exit:                            ; preds = %1
  %8 = zext nneg i32 %5 to i64
  %9 = getelementptr inbounds nuw i8, ptr %3, i64 %8
  %10 = ptrtoint ptr %9 to i64
  %11 = icmp samesign ult i32 %5, 2
  br i1 %11, label %bytestream2_get_be16.exit.thread, label %bytestream2_get_be16.exit

bytestream2_get_be16.exit:                        ; preds = %bytestream2_init.exit
  %12 = load i16, ptr %3, align 1, !tbaa !12
  %.not = icmp eq i16 %12, 12876
  br i1 %.not, label %13, label %bytestream2_get_be16.exit.thread

13:                                               ; preds = %bytestream2_get_be16.exit
  %14 = tail call i64 @llvm.umin.i64(i64 %8, i64 12)
  %gepdiff = sub nsw i64 %8, %14
  %15 = icmp slt i64 %gepdiff, 2
  br i1 %15, label %bytestream2_get_be16.exit.thread, label %bytestream2_get_be16.exit31

bytestream2_get_be16.exit31:                      ; preds = %13
  %16 = getelementptr i8, ptr %3, i64 %14
  %17 = load i16, ptr %16, align 1, !tbaa !12
  %18 = icmp eq i16 %17, 0
  br i1 %18, label %bytestream2_get_be16.exit.thread, label %.preheader

.preheader:                                       ; preds = %bytestream2_get_be16.exit31
  %19 = getelementptr inbounds nuw i8, ptr %16, i64 2
  %20 = ptrtoint ptr %19 to i64
  %21 = sub i64 %10, %20
  %22 = trunc i64 %21 to i32
  %23 = icmp sgt i32 %22, 0
  br i1 %23, label %.lr.ph, label %.loopexit

.lr.ph:                                           ; preds = %.preheader, %54
  %24 = phi i64 [ %60, %54 ], [ %21, %.preheader ]
  %.02765 = phi i32 [ %.3, %54 ], [ 15, %.preheader ]
  %.sroa.0.064 = phi ptr [ %58, %54 ], [ %19, %.preheader ]
  %25 = icmp slt i64 %24, 1
  br i1 %25, label %bytestream2_get_byte.exit, label %26

26:                                               ; preds = %.lr.ph
  %27 = getelementptr inbounds nuw i8, ptr %.sroa.0.064, i64 1
  %28 = load i8, ptr %.sroa.0.064, align 1, !tbaa !12
  %29 = zext i8 %28 to i32
  %.pre = ptrtoint ptr %27 to i64
  br label %bytestream2_get_byte.exit

bytestream2_get_byte.exit:                        ; preds = %.lr.ph, %26
  %.pre-phi = phi i64 [ %10, %.lr.ph ], [ %.pre, %26 ]
  %.sroa.0.4 = phi ptr [ %9, %.lr.ph ], [ %27, %26 ]
  %.0.i33 = phi i32 [ 0, %.lr.ph ], [ %29, %26 ]
  %30 = sub i64 %10, %.pre-phi
  %31 = icmp slt i64 %30, 1
  br i1 %31, label %bytestream2_get_byte.exit35, label %32

32:                                               ; preds = %bytestream2_get_byte.exit
  %33 = getelementptr inbounds nuw i8, ptr %.sroa.0.4, i64 1
  %34 = load i8, ptr %.sroa.0.4, align 1, !tbaa !12
  %35 = zext i8 %34 to i32
  br label %bytestream2_get_byte.exit35

bytestream2_get_byte.exit35:                      ; preds = %bytestream2_get_byte.exit, %32
  %.sroa.0.5 = phi ptr [ %33, %32 ], [ %9, %bytestream2_get_byte.exit ]
  %.0.i34 = phi i32 [ %35, %32 ], [ 0, %bytestream2_get_byte.exit ]
  %36 = icmp eq i32 %.0.i33, 0
  br i1 %36, label %.thread, label %40

.thread:                                          ; preds = %bytestream2_get_byte.exit35
  %37 = icmp eq i32 %.0.i34, 0
  %38 = select i1 %37, i32 5, i32 0
  %39 = add nsw i32 %38, %.02765
  br label %.loopexit

40:                                               ; preds = %bytestream2_get_byte.exit35
  %41 = icmp eq i32 %.0.i33, 1
  %42 = icmp eq i32 %.0.i34, 12
  %or.cond = select i1 %41, i1 %42, i1 false
  br i1 %or.cond, label %52, label %43

43:                                               ; preds = %40
  %44 = icmp eq i32 %.0.i33, 2
  %45 = icmp eq i32 %.0.i34, 6
  %or.cond3 = select i1 %44, i1 %45, i1 false
  br i1 %or.cond3, label %52, label %46

46:                                               ; preds = %43
  %47 = icmp eq i32 %.0.i33, 3
  %48 = icmp eq i32 %.0.i34, 13
  %or.cond5 = select i1 %47, i1 %48, i1 false
  br i1 %or.cond5, label %52, label %49

49:                                               ; preds = %46
  %50 = icmp eq i32 %.0.i33, 4
  %51 = icmp eq i32 %.0.i34, 2
  %or.cond7 = select i1 %50, i1 %51, i1 false
  br i1 %or.cond7, label %52, label %54

52:                                               ; preds = %49, %46, %43, %40
  %53 = add nsw i32 %.02765, 20
  br label %54

54:                                               ; preds = %49, %52
  %.3 = phi i32 [ %53, %52 ], [ %.02765, %49 ]
  %55 = ptrtoint ptr %.sroa.0.5 to i64
  %56 = sub i64 %10, %55
  %57 = zext nneg i32 %.0.i34 to i64
  %..i32 = tail call i64 @llvm.smin.i64(i64 %56, i64 %57)
  %58 = getelementptr inbounds i8, ptr %.sroa.0.5, i64 %..i32
  %59 = ptrtoint ptr %58 to i64
  %60 = sub i64 %10, %59
  %61 = trunc i64 %60 to i32
  %62 = icmp sgt i32 %61, 0
  br i1 %62, label %.lr.ph, label %.loopexit

.loopexit:                                        ; preds = %54, %.preheader, %.thread
  %.1 = phi i32 [ %39, %.thread ], [ 15, %.preheader ], [ %.3, %54 ]
  %63 = tail call i32 @llvm.smin.i32(i32 %.1, i32 100)
  br label %bytestream2_get_be16.exit.thread

bytestream2_get_be16.exit.thread:                 ; preds = %13, %bytestream2_init.exit, %bytestream2_get_be16.exit31, %bytestream2_get_be16.exit, %.loopexit
  %.0 = phi i32 [ %63, %.loopexit ], [ 0, %bytestream2_get_be16.exit ], [ 0, %bytestream2_get_be16.exit31 ], [ 0, %bytestream2_init.exit ], [ 0, %13 ]
  ret i32 %.0
}